; Function Attrs: mustprogress nofree nounwind willreturn memory(read, inaccessiblemem: none) uwtable
define dso_local noundef zeroext i1 @_ZN5clang13DiagnosticIDs15isARCDiagnosticEj(i32 noundef %0) local_unnamed_addr #11 align 2 {
  %2 = tail call fastcc noundef ptr @_ZL11GetDiagInfoj(i32 noundef %0)
  %.not.i = icmp eq ptr %2, null
  br i1 %.not.i, label %_ZN5clang13DiagnosticIDs21getCategoryNameFromIDEj.exit, label %_ZN5clang13DiagnosticIDs24getCategoryNumberForDiagEj.exit

_ZN5clang13DiagnosticIDs24getCategoryNumberForDiagEj.exit: ; preds = %1
  %3 = getelementptr inbounds nuw i8, ptr %2, i64 2
  %4 = load i32, ptr %3, align 2
  %5 = lshr i32 %4, 8
  %6 = and i32 %5, 63
  %7 = icmp ugt i32 %6, 39
  br i1 %7, label %_ZNK4llvm9StringRef11starts_withES0_.exit, label %_ZN5clang13DiagnosticIDs21getCategoryNameFromIDEj.exit

_ZN5clang13DiagnosticIDs21getCategoryNameFromIDEj.exit: ; preds = %_ZN5clang13DiagnosticIDs24getCategoryNumberForDiagEj.exit, %1
  %.0.i6 = phi i32 [ %6, %_ZN5clang13DiagnosticIDs24getCategoryNumberForDiagEj.exit ], [ 0, %1 ]
  %8 = zext nneg i32 %.0.i6 to i64
  %9 = getelementptr inbounds [41 x %"struct.(anonymous namespace)::StaticDiagCategoryRec"], ptr @_ZL17CategoryNameTable, i64 0, i64 %8
  %10 = getelementptr i8, ptr %9, i64 8
  %.val2.i = load i8, ptr %10, align 8
  %11 = icmp ult i8 %.val2.i, 4
  br i1 %11, label %_ZNK4llvm9StringRef11starts_withES0_.exit, label %12

12:                                               ; preds = %_ZN5clang13DiagnosticIDs21getCategoryNameFromIDEj.exit
  %.val.i = load ptr, ptr %9, align 16
  %bcmp.i = tail call i32 @bcmp(ptr noundef nonnull dereferenceable(4) %.val.i, ptr noundef nonnull dereferenceable(4) @.str.3, i64 4)
  %13 = icmp eq i32 %bcmp.i, 0
  br label %_ZNK4llvm9StringRef11starts_withES0_.exit

_ZNK4llvm9StringRef11starts_withES0_.exit:        ; preds = %_ZN5clang13DiagnosticIDs24getCategoryNumberForDiagEj.exit, %_ZN5clang13DiagnosticIDs21getCategoryNameFromIDEj.exit, %12
  %14 = phi i1 [ false, %_ZN5clang13DiagnosticIDs21getCategoryNameFromIDEj.exit ], [ %13, %12 ], [ false, %_ZN5clang13DiagnosticIDs24getCategoryNumberForDiagEj.exit ]
  ret i1 %14
}